; Function Attrs: mustprogress uwtable
define hidden void @_ZN4lean8abstractERKNS_4exprEjPS1_(ptr dead_on_unwind noalias writable sret(%"class.lean::expr") align 8 %0, ptr noundef nonnull align 8 dereferenceable(8) %1, i32 noundef %2, ptr noundef %3) local_unnamed_addr #0 personality ptr @__gxx_personality_v0 {
  %5 = alloca %"class.std::function", align 8
  %6 = load ptr, ptr %1, align 8, !tbaa !3
  %7 = getelementptr i8, ptr %6, i64 4
  %.val.i.i = load i32, ptr %7, align 4
  %8 = lshr i32 %.val.i.i, 13
  %9 = and i32 %8, 2040
  %10 = getelementptr inbounds nuw i8, ptr %6, i64 8
  %11 = zext nneg i32 %9 to i64
  %12 = getelementptr inbounds nuw i8, ptr %10, i64 %11
  %13 = load i64, ptr %12, align 8, !tbaa !8
  %14 = and i64 %13, 1099511627776
  %.not = icmp eq i64 %14, 0
  br i1 %.not, label %15, label %24

15:                                               ; preds = %4
  store ptr %6, ptr %0, align 8, !tbaa !3
  %16 = ptrtoint ptr %6 to i64
  %17 = and i64 %16, 1
  %.not.i.i.i = icmp eq i64 %17, 0
  br i1 %.not.i.i.i, label %18, label %_ZN4lean4exprC2ERKS0_.exit

18:                                               ; preds = %15
  %.val.i.i.i.i = load i32, ptr %6, align 4, !tbaa !10
  %19 = icmp sgt i32 %.val.i.i.i.i, 0
  br i1 %19, label %20, label %22, !prof !13

20:                                               ; preds = %18
  %21 = add nuw nsw i32 %.val.i.i.i.i, 1
  store i32 %21, ptr %6, align 4, !tbaa !10
  br label %_ZN4lean4exprC2ERKS0_.exit

22:                                               ; preds = %18
  %.not.i.i.i.i = icmp eq i32 %.val.i.i.i.i, 0
  br i1 %.not.i.i.i.i, label %_ZN4lean4exprC2ERKS0_.exit, label %23

23:                                               ; preds = %22
  tail call void @lean_inc_ref_cold(ptr noundef nonnull %6)
  br label %_ZN4lean4exprC2ERKS0_.exit

24:                                               ; preds = %4
  call void @llvm.lifetime.start.p0(i64 32, ptr nonnull %5) #10
  %25 = getelementptr inbounds nuw i8, ptr %5, i64 16
  %26 = getelementptr inbounds nuw i8, ptr %5, i64 24
  store i64 0, ptr %5, align 8
  store i32 %2, ptr %5, align 8, !tbaa !14
  %.sroa.58.0..sroa_idx = getelementptr inbounds nuw i8, ptr %5, i64 8
  store ptr %3, ptr %.sroa.58.0..sroa_idx, align 8, !tbaa !15
  store ptr @"_ZNSt17_Function_handlerIFN4lean8optionalINS0_4exprEEERKS2_jEZNS0_8abstractES5_jPS4_E3$_0E9_M_invokeERKSt9_Any_dataS5_Oj", ptr %26, align 8, !tbaa !17
  store ptr @"_ZNSt17_Function_handlerIFN4lean8optionalINS0_4exprEEERKS2_jEZNS0_8abstractES5_jPS4_E3$_0E10_M_managerERSt9_Any_dataRKSA_St18_Manager_operation", ptr %25, align 8, !tbaa !20
  invoke void @_ZN4lean7replaceERKNS_4exprERKSt8functionIFNS_8optionalIS0_EES2_jEEb(ptr dead_on_unwind writable sret(%"class.lean::expr") align 8 %0, ptr noundef nonnull align 8 dereferenceable(8) %1, ptr noundef nonnull align 8 dereferenceable(32) %5, i1 noundef zeroext true)
          to label %27 unwind label %34

27:                                               ; preds = %24
  %28 = load ptr, ptr %25, align 8, !tbaa !20
  %.not.i = icmp eq ptr %28, null
  br i1 %.not.i, label %_ZNSt14_Function_baseD2Ev.exit, label %29

29:                                               ; preds = %27
  %30 = invoke noundef zeroext i1 %28(ptr noundef nonnull align 8 dereferenceable(32) %5, ptr noundef nonnull align 8 dereferenceable(32) %5, i32 noundef 3)
          to label %_ZNSt14_Function_baseD2Ev.exit unwind label %31

31:                                               ; preds = %29
  %32 = landingpad { ptr, i32 }
          catch ptr null
  %33 = extractvalue { ptr, i32 } %32, 0
  call void @__clang_call_terminate(ptr %33) #11
  unreachable

_ZNSt14_Function_baseD2Ev.exit:                   ; preds = %27, %29
  call void @llvm.lifetime.end.p0(i64 32, ptr nonnull %5) #10
  br label %_ZN4lean4exprC2ERKS0_.exit

34:                                               ; preds = %24
  %35 = landingpad { ptr, i32 }
          cleanup
  %36 = load ptr, ptr %25, align 8, !tbaa !20
  %.not.i6 = icmp eq ptr %36, null
  br i1 %.not.i6, label %_ZNSt14_Function_baseD2Ev.exit7, label %37

37:                                               ; preds = %34
  %38 = invoke noundef zeroext i1 %36(ptr noundef nonnull align 8 dereferenceable(32) %5, ptr noundef nonnull align 8 dereferenceable(32) %5, i32 noundef 3)
          to label %_ZNSt14_Function_baseD2Ev.exit7 unwind label %39

39:                                               ; preds = %37
  %40 = landingpad { ptr, i32 }
          catch ptr null
  %41 = extractvalue { ptr, i32 } %40, 0
  call void @__clang_call_terminate(ptr %41) #11
  unreachable

_ZNSt14_Function_baseD2Ev.exit7:                  ; preds = %34, %37
  call void @llvm.lifetime.end.p0(i64 32, ptr nonnull %5) #10
  resume { ptr, i32 } %35

_ZN4lean4exprC2ERKS0_.exit:                       ; preds = %23, %22, %20, %15, %_ZNSt14_Function_baseD2Ev.exit
  ret void
}